target datalayout = "e-m:e-p270:32:32-p271:32:32-p272:64:64-i64:64-i128:128-f80:128-n8:16:32:64-S128"
target triple = "x86_64-pc-linux-gnu"

%class.PacketRangeGroupBox = type <{ %class.QGroupBox, ptr, ptr, i32, [4 x i8] }>
%class.QGroupBox = type { %class.QWidget }
%class.QWidget = type { %class.QObject, %class.QPaintDevice.base, ptr }
%class.QObject = type { ptr, %class.QScopedPointer }
%class.QScopedPointer = type { ptr }
%class.QPaintDevice.base = type <{ ptr, i16 }>
%struct.packet_range_tag = type { i32, i32, i32, i32, ptr, i32, ptr, i32, ptr, i32, i32, i32, i32, i32, i32, i32, i32, i32, i32, i32, i32, i32, i32, i32, i32, i32, i32, i32, i32, i32, i32, i32, i32, i32, i32, i32, ptr, ptr, ptr, ptr, ptr, ptr, ptr, ptr, i32, i32 }

; Function Attrs: mustprogress uwtable
define void @_ZN19PacketRangeGroupBox25on_capturedButton_toggledEb(ptr noundef nonnull align 8 dereferenceable(60) %0, i1 noundef zeroext %1) #0 align 2 {
  %3 = alloca ptr, align 8
  %4 = alloca i8, align 1
  store ptr %0, ptr %3, align 8
  %5 = zext i1 %1 to i8
  store i8 %5, ptr %4, align 1
  %6 = load ptr, ptr %3, align 8
  %7 = load i8, ptr %4, align 1
  %8 = trunc i8 %7 to i1
  br i1 %8, label %9, label %18

9:                                                ; preds = %2
  %10 = getelementptr inbounds %class.PacketRangeGroupBox, ptr %6, i32 0, i32 2
  %11 = load ptr, ptr %10, align 8
  %12 = icmp ne ptr %11, null
  br i1 %12, label %13, label %17

13:                                               ; preds = %9
  %14 = getelementptr inbounds %class.PacketRangeGroupBox, ptr %6, i32 0, i32 2
  %15 = load ptr, ptr %14, align 8
  %16 = getelementptr inbounds %struct.packet_range_tag, ptr %15, i32 0, i32 1
  store i32 0, ptr %16, align 4
  br label %17

17:                                               ; preds = %13, %9
  call void @_ZN19PacketRangeGroupBox12updateCountsEv(ptr noundef nonnull align 8 dereferenceable(60) %6)
  br label %18

18:                                               ; preds = %17, %2
  ret void
}